; Function Attrs: nounwind uwtable
define dso_local ptr @GetAllSchemaPublicationRelations(i32 noundef %0, i32 noundef %1) local_unnamed_addr #0 {
  %3 = tail call ptr @GetPublicationSchemas(i32 noundef %0)
  %4 = getelementptr inbounds nuw i8, ptr %3, i64 4
  %.not = icmp eq ptr %3, null
  br i1 %.not, label %._crit_edge, label %.lr.ph

.lr.ph:                                           ; preds = %2
  %5 = getelementptr inbounds nuw i8, ptr %3, i64 16
  %6 = load i32, ptr %4, align 4
  %7 = icmp sgt i32 %6, 0
  br i1 %7, label %.lr.ph23, label %._crit_edge

._crit_edge:                                      ; preds = %.lr.ph23, %.lr.ph, %2
  %.0.lcssa = phi ptr [ null, %2 ], [ null, %.lr.ph ], [ %12, %.lr.ph23 ]
  ret ptr %.0.lcssa

.lr.ph23:                                         ; preds = %.lr.ph, %.lr.ph23
  %indvars.iv = phi i64 [ %indvars.iv.next, %.lr.ph23 ], [ 0, %.lr.ph ]
  %.01721 = phi ptr [ %12, %.lr.ph23 ], [ null, %.lr.ph ]
  %8 = load ptr, ptr %5, align 8
  %9 = getelementptr inbounds nuw %union.ListCell, ptr %8, i64 %indvars.iv
  %10 = load i32, ptr %9, align 8
  %11 = tail call ptr @GetSchemaPublicationRelations(i32 noundef %10, i32 noundef %1)
  %12 = tail call ptr @list_concat(ptr noundef %.01721, ptr noundef %11) #6
  %indvars.iv.next = add nuw nsw i64 %indvars.iv, 1
  %13 = load i32, ptr %4, align 4
  %14 = sext i32 %13 to i64
  %15 = icmp slt i64 %indvars.iv.next, %14
  br i1 %15, label %.lr.ph23, label %._crit_edge
}